(lp0
(lp1
(lp2
F-0.011866924352943897
aF0.00790451467037201
aa(lp3
F-0.006976109463721514
aF0.01283570472151041
aa(lp4
F-0.0012984457425773144
aF0.004093656782060862
aa(lp5
F0.01347433589398861
aF-0.003594447858631611
aa(lp6
F-0.00998510792851448
aF-0.007850983180105686
aa(lp7
F-0.006780997384339571
aF0.00225090398453176
aa(lp8
F0.002928701462224126
aF0.005307304672896862
aa(lp9
F-0.006843267939984798
aF0.011082508601248264
aaa(lp10
(lp11
F0.002282209461554885
aF-0.003702454501762986
aF0.00795126985758543
aF0.010879249311983585
aF0.011563211679458618
aF0.012104453518986702
aF-0.017871540039777756
aF-0.008760715834796429
aa(lp12
F0.010708247311413288
aF-0.0275432076305151
aF0.0020439536310732365
aF-0.007230123970657587
aF0.009691638872027397
aF-0.01636737398803234
aF-0.006853091064840555
aF0.014090378768742085
aa(lp13
F0.004165269434452057
aF0.018880926072597504
aF0.012990085408091545
aF-0.008437073789536953
aF-0.007906319573521614
aF0.02354985661804676
aF0.004370510578155518
aF-0.00352745340205729
aa(lp14
F0.013721100054681301
aF-0.007644430734217167
aF-0.0019846984650939703
aF-0.018221529200673103
aF0.00034100294578820467
aF0.00535051291808486
aF0.015414937399327755
aF0.007734967395663261
aaa(lp15
(lp16
F-0.006180549040436745
aF-0.009485792368650436
aF0.007277546916157007
aF-0.014901149086654186
aa(lp17
F0.001923354691825807
aF0.019961008802056313
aF0.003626500256359577
aF0.0014250976964831352
aa(lp18
F-0.010679708793759346
aF0.00031268084421753883
aF0.003188671311363578
aF-0.019459424540400505
aa(lp19
F-0.004576351027935743
aF0.0065021454356610775
aF0.009878191165626049
aF0.012795330956578255
aa(lp20
F0.003177050966769457
aF0.002933216979727149
aF-0.0020737764425575733
aF-0.01872737891972065
aaa(lp21
(lp22
F0.00878776516765356
aF-0.004361133091151714
aF0.003739956533536315
aF-0.015989860519766808
aF0.0064736767672002316
aa(lp23
F0.008841498754918575
aF-0.004487680736929178
aF-0.0043245479464530945
aF-0.005543593782931566
aF0.006399267818778753
aaa.