(lp0
(lp1
(lp2
F-0.01208254974335432
aF0.007130655460059643
aa(lp3
F-0.015577487647533417
aF0.01716570183634758
aa(lp4
F-0.003489178605377674
aF0.005575807765126228
aaa(lp5
(lp6
F-0.009934792295098305
aF-0.005884408950805664
aF-0.008818608708679676
aa(lp7
F0.0021585116628557444
aF0.01437502820044756
aF-0.0027262489311397076
aa(lp8
F0.012392537668347359
aF0.0020063421688973904
aF0.023605767637491226
aa(lp9
F0.009543515741825104
aF0.018316680565476418
aF0.008056806400418282
aaa(lp10
(lp11
F0.01637176424264908
aF-0.014547168277204037
aF-0.0028315347153693438
aF-0.012956850230693817
aa(lp12
F0.006314287427812815
aF0.00036561209708452225
aF0.00469744810834527
aF-0.018689971417188644
aaa.