(lp0
(lp1
(lp2
F-0.00618112925440073
aF0.0013906757812947035
aF0.0029491770546883345
aa(lp3
F-0.015385620296001434
aF-0.023213697597384453
aF-0.009762612171471119
aaa(lp4
(lp5
F0.009496391750872135
aF-0.008851557970046997
aF0.007603164296597242
aF-0.00013569618749897927
aa(lp6
F-0.00016080052591860294
aF-0.00440188916400075
aF-0.014565648511052132
aF-0.023008087649941444
aa(lp7
F-0.004174742382019758
aF-0.014168518595397472
aF-0.004861580673605204
aF-0.000310821138555184
aaa(lp8
(lp9
F-0.003619592171162367
aF0.007106580771505833
aF0.003924672957509756
aF-0.005574769806116819
aF-0.0038069263100624084
aa(lp10
F0.004106645006686449
aF0.0021749623119831085
aF0.0013693250948563218
aF0.00876706000417471
aF-0.003927499987185001
aa(lp11
F0.005994325969368219
aF0.001051250146701932
aF-0.0021522159222513437
aF0.02111627720296383
aF0.00012738797522615641
aa(lp12
F0.0008931238553486764
aF0.0024711228907108307
aF0.0036365175619721413
aF0.014234519563615322
aF-0.004263852257281542
aaa(lp13
(lp14
F-0.018972333520650864
aF0.0002797044289764017
aa(lp15
F-0.010327006690204144
aF0.004613306373357773
aa(lp16
F0.007017312105745077
aF-0.008009573444724083
aa(lp17
F-0.013907394371926785
aF0.017612246796488762
aa(lp18
F0.002245431300252676
aF0.007047198247164488
aaa.