(lp0
(lp1
(lp2
F0.010054449550807476
aF-0.0021568203810602427
aa(lp3
F0.00955044012516737
aF0.006077652797102928
aa(lp4
F-0.009550635702908039
aF-0.015040457248687744
aaa(lp5
(lp6
F-0.009293251670897007
aF0.0092659592628479
aF0.004683101549744606
aa(lp7
F-0.01594734378159046
aF0.001668703043833375
aF-0.004406232852488756
aa(lp8
F-0.003656954038888216
aF-0.007802625186741352
aF0.003694593207910657
aa(lp9
F-0.008091872557997704
aF-0.00636139465495944
aF-0.00535438721999526
aaa(lp10
(lp11
F-0.005201446823775768
aF0.007712307386100292
aF0.0028344588354229927
aF0.01955280266702175
aa(lp12
F0.004221772309392691
aF0.0007828389061614871
aF-0.016955824568867683
aF-0.0008406842825934291
aa(lp13
F-0.000467046134872362
aF0.016051826998591423
aF0.005578816868364811
aF-0.010459205135703087
aa(lp14
F-0.013561319559812546
aF0.00949092861264944
aF0.013208283111453056
aF0.004989665932953358
aa(lp15
F0.0027031295467168093
aF0.003036871552467346
aF0.0007682969444431365
aF-0.0009993810672312975
aaa(lp16
(lp17
F-0.006512748077511787
aF-0.0021443055011332035
aF-0.003393755992874503
aF0.011404678225517273
aF-0.007480304222553968
aa(lp18
F0.010646027512848377
aF-0.009656905196607113
aF0.0028846438508480787
aF0.008321775123476982
aF-0.02208791859447956
aaa.