(lp0
(lp1
(lp2
F-0.013485596515238285
aF0.0013073129812255502
aa(lp3
F0.00215606065467
aF-0.0012037742417305708
aa(lp4
F-0.007709633093327284
aF-0.009744131937623024
aa(lp5
F-0.0033369765151292086
aF-0.0005184122128412127
aa(lp6
F-0.0015014131786301732
aF-0.002457407070323825
aa(lp7
F0.00015316145436372608
aF0.006716919597238302
aa(lp8
F-0.004331209231168032
aF-0.011442100629210472
aaa(lp9
(lp10
F-0.0069766901433467865
aF0.009156123735010624
aF-0.007026974111795425
aF-0.00603690929710865
aF0.00497682997956872
aF0.005289081018418074
aF0.0023407400585711002
aa(lp11
F-0.006249444559216499
aF0.02756079100072384
aF0.01642741449177265
aF-0.005215753801167011
aF0.007885623723268509
aF-0.015028960071504116
aF-0.006829546298831701
aa(lp12
F0.0011432060273364186
aF-0.0046411240473389626
aF-0.008354994468390942
aF0.008579113520681858
aF-0.008543240837752819
aF-0.016347123309969902
aF0.008847221732139587
aa(lp13
F0.0030276314355432987
aF0.01330487709492445
aF-0.004715651739388704
aF-0.003482439089566469
aF0.004240928217768669
aF0.010305636562407017
aF0.009258111007511616
aa(lp14
F0.01553011778742075
aF-0.006060962099581957
aF-0.0014855596236884594
aF-0.013088173232972622
aF0.0005540566053241491
aF0.01727258414030075
aF-0.016098516061902046
aa(lp15
F-0.013607090339064598
aF-0.006703841499984264
aF0.010163688100874424
aF-0.00047778637963347137
aF0.011014614254236221
aF-0.003153176512569189
aF0.007605049293488264
aa(lp16
F-0.005280604586005211
aF-0.019330624490976334
aF-0.014509554021060467
aF-0.00017242744797840714
aF0.017167335376143456
aF-0.004360303748399019
aF0.00340451137162745
aa(lp17
F-0.00549301179125905
aF0.004333865828812122
aF-0.010085205547511578
aF0.0041678170673549175
aF-0.02157115936279297
aF0.004447168204933405
aF0.0023606917820870876
aaa(lp18
(lp19
F0.0028950385749340057
aF0.009132820181548595
aF-0.010195924900472164
aF-0.0031412800308316946
aF0.017678944393992424
aF0.009743469767272472
aF-0.005500342231243849
aF-0.006725158542394638
aa(lp20
F0.0096082529053092
aF-0.015150940045714378
aF3.18322690873174e-06
aF-0.020478885620832443
aF-0.008249335922300816
aF-6.84140031808056e-05
aF-0.003744256217032671
aF-0.0025561251677572727
aa(lp21
F0.011140502989292145
aF0.004676570184528828
aF0.0005077010137028992
aF0.0045790099538862705
aF0.008202753029763699
aF-0.0033855948131531477
aF-0.0010637497762218118
aF0.013069522567093372
aa(lp22
F0.005559863056987524
aF0.00694618932902813
aF-0.01045138482004404
aF-0.002711429726332426
aF-0.007372862659394741
aF-0.00046047891373746097
aF0.0032070637680590153
aF-0.0016078476328402758
aa(lp23
F0.005125255323946476
aF-2.9117158192093484e-05
aF0.0014282241463661194
aF0.0026905538979917765
aF0.0011756892781704664
aF0.014629200100898743
aF-0.009067686274647713
aF-0.006679243873804808
aa(lp24
F-0.009260945953428745
aF-0.010548772290349007
aF0.002135353861376643
aF-0.0023689870722591877
aF-0.0026104708667844534
aF-0.009830172173678875
aF-0.002611646195873618
aF0.008625483140349388
aa(lp25
F0.0040765623562037945
aF0.00026894433540292084
aF0.010302267037332058
aF-0.015850737690925598
aF-0.0006790055776946247
aF0.027470778673887253
aF-0.0009015529067255557
aF-0.009071789681911469
aa(lp26
F0.015035703778266907
aF-0.001322795869782567
aF0.006162235513329506
aF-0.008115752600133419
aF-0.005040775053203106
aF-0.012615712359547615
aF-0.000417503179050982
aF-0.001967456890270114
aa(lp27
F-0.010547442361712456
aF-0.017018400132656097
aF-0.013728107325732708
aF0.014135554432868958
aF-0.002145750680938363
aF-0.01362756546586752
aF0.010495390743017197
aF-0.024384133517742157
aa(lp28
F-0.008447211235761642
aF-0.015086082741618156
aF-0.01892900839447975
aF0.011255234479904175
aF-0.0017373047303408384
aF0.0009884395403787494
aF0.011311283335089684
aF-0.0035386993549764156
aa(lp29
F-0.008027938194572926
aF-0.010933066718280315
aF-0.012792636640369892
aF0.001237543299794197
aF-0.0033417537342756987
aF1.388326745654922e-05
aF-0.010234084911644459
aF-0.0057428437285125256
aa(lp30
F0.0007896471652202308
aF-0.002413293579593301
aF-0.012475868687033653
aF-0.0025916392914950848
aF-0.019243519753217697
aF0.00018597370944917202
aF0.006263514515012503
aF-0.009769373573362827
aa(lp31
F0.012398784048855305
aF-0.0019569562282413244
aF-0.013087145984172821
aF0.00043027783976867795
aF-0.004623474553227425
aF-0.01271836832165718
aF-0.004378466866910458
aF-0.005799097940325737
aaa(lp32
(lp33
F-0.0031806721817702055
aF0.006308547221124172
aF-0.0020701109897345304
aF-0.009751275181770325
aF-0.017455104738473892
aF-0.005956567823886871
aF0.0050041391514241695
aF0.01959005557000637
aF-0.002817835658788681
aF0.02365327812731266
aF-0.01006534043699503
aF0.011378505267202854
aF0.004454005043953657
aa(lp34
F-0.003659450449049473
aF0.007598812226206064
aF0.0026624829042702913
aF0.0018416926031932235
aF-0.013773573562502861
aF-0.002486554905772209
aF-0.016858449205756187
aF-0.019702598452568054
aF-0.006038136314600706
aF-0.002369790803641081
aF-0.023659273982048035
aF-0.01516589242964983
aF-0.002992592751979828
aaa.