(lp0
(lp1
(lp2
F-0.018788717687129974
aF-0.005945207551121712
aa(lp3
F-0.0015555073041468859
aF-0.004037292208522558
aa(lp4
F-0.009311780333518982
aF-0.0006942420150153339
aa(lp5
F-0.00226758630014956
aF0.015350738540291786
aa(lp6
F-0.0017814163584262133
aF0.008582325652241707
aa(lp7
F0.0032687413040548563
aF0.009752837009727955
aa(lp8
F0.0075668892823159695
aF-0.0024072304368019104
aa(lp9
F0.004056063015013933
aF-0.00408910121768713
aa(lp10
F0.008037942461669445
aF0.007713243830949068
aaa(lp11
(lp12
F0.010386740788817406
aF0.0003307285951450467
aF0.013126060366630554
aF-0.0011208673240616918
aF-0.00303530041128397
aF0.011231232434511185
aF-0.0022247517481446266
aF-0.004193278029561043
aF0.007095402106642723
aa(lp13
F0.012984320521354675
aF0.011338126845657825
aF-0.0010187937878072262
aF-0.009571702219545841
aF0.017557339742779732
aF-0.0019035565201193094
aF-0.014258871786296368
aF0.001295602647587657
aF0.011729334481060505
aa(lp14
F-0.008461602963507175
aF-0.0032695187255740166
aF0.004981515929102898
aF0.0035868368577212095
aF0.0014806315302848816
aF0.01695484295487404
aF-0.012694776058197021
aF-0.02152344025671482
aF-0.014486166648566723
aa(lp15
F0.0005586621118709445
aF-0.004014012403786182
aF0.005695180036127567
aF0.005555170122534037
aF0.003420015797019005
aF0.0038641109131276608
aF0.0008780471980571747
aF0.003072748426347971
aF0.0010403322521597147
aaa(lp16
(lp17
F0.009830165654420853
aF0.006184494588524103
aF0.0031772430520504713
aF0.0033456487581133842
aa(lp18
F-0.004314894787967205
aF-0.004763375502079725
aF0.0042079733684659
aF0.015176484361290932
aa(lp19
F0.003434125566855073
aF-0.008007402531802654
aF-0.01590423658490181
aF0.008334868587553501
aa(lp20
F-0.011005113832652569
aF-0.0021447883918881416
aF-0.009340615011751652
aF-0.00013640442921314389
aa(lp21
F0.0015012052608653903
aF0.00536967720836401
aF-0.00491334917023778
aF-0.001302107935771346
aaa(lp22
(lp23
F-0.002489836420863867
aF-0.008656156249344349
aF0.004763559438288212
aF0.015136869624257088
aF-0.006620010826736689
aa(lp24
F-0.00871086586266756
aF0.013216624967753887
aF-0.005296037532389164
aF-0.016554860398173332
aF0.014717008918523788
aa(lp25
F-0.0015214417362585664
aF-0.007947247475385666
aF-0.02014114335179329
aF-0.006501687690615654
aF-0.00438872491940856
aa(lp26
F-0.0078941835090518
aF0.0025478610768914223
aF-0.0005676433793269098
aF-0.008119001053273678
aF0.012773404829204082
aaa(lp27
(lp28
F-0.0029612004291266203
aF0.015657776966691017
aF0.008326038718223572
aF-0.012438997626304626
aa(lp29
F-0.011538543738424778
aF-0.007699843496084213
aF0.010865128599107265
aF0.006606966257095337
aaa.