(lp0
(lp1
(lp2
F-0.0010874648578464985
aF-0.007685790304094553
aF0.0021781432442367077
aF0.010890568606555462
aa(lp3
F0.005909925792366266
aF0.010406998917460442
aF-0.017748558893799782
aF0.0067282686941325665
aaa(lp4
(lp5
F-0.0033191873226314783
aF-0.004188820719718933
aF0.0021813216153532267
aF0.026588980108499527
aF0.00823456235229969
aa(lp6
F0.0008871469181030989
aF0.0005354802124202251
aF-0.013799801468849182
aF0.002725372789427638
aF-0.004940915387123823
aa(lp7
F0.0037561338394880295
aF0.0034325539600104094
aF-0.014734587632119656
aF0.0025281799025833607
aF-0.004790843464434147
aa(lp8
F-0.00327704637311399
aF-0.001977168722078204
aF3.9342190575553104e-05
aF-0.0058069899678230286
aF0.009993568062782288
aaa(lp9
(lp10
F-0.008128485642373562
aF0.0043986705131828785
aF0.002652206923812628
aF0.004417972639203072
aF0.014224625192582607
aF-0.006400319281965494
aa(lp11
F-0.004863562993705273
aF-0.001994619145989418
aF-0.01380188949406147
aF-0.003666107077151537
aF-0.006493126507848501
aF0.0033462245482951403
aa(lp12
F0.005815267562866211
aF0.013886712491512299
aF-0.014151142910122871
aF-0.012074687518179417
aF-0.004379651974886656
aF0.0008122536819428205
aa(lp13
F0.009102972224354744
aF0.0019059343030676246
aF-0.005986122414469719
aF-0.009471254423260689
aF-0.015384802594780922
aF0.008303286507725716
aa(lp14
F-0.003420850494876504
aF0.0004945400287397206
aF0.013840668834745884
aF0.010353284887969494
aF0.0040427218191325665
aF-0.0232014749199152
aaa(lp15
(lp16
F0.007148010190576315
aF0.0008632567478343844
aa(lp17
F0.006528985220938921
aF0.0011779055930674076
aa(lp18
F-0.0043439436703920364
aF-0.0015900747384876013
aa(lp19
F0.0016006131190806627
aF-0.0036182610783725977
aa(lp20
F-0.0019031275296583772
aF0.005099533125758171
aa(lp21
F0.014490064233541489
aF-0.004428422078490257
aaa.